; Function Attrs: mustprogress uwtable
define void @_ZN7rocksdb15BlockBasedTable23CreateFilterBlockReaderERKNS_11ReadOptionsEPNS_18FilePrefetchBufferEbbbPNS_23BlockCacheLookupContextE(ptr noalias sret(%"class.std::unique_ptr.30") align 8 %agg.result, ptr noundef nonnull align 8 dereferenceable(24) %this, ptr noundef nonnull align 8 dereferenceable(154) %ro, ptr noundef %prefetch_buffer, i1 noundef zeroext %use_cache, i1 noundef zeroext %prefetch, i1 noundef zeroext %pin, ptr noundef %lookup_context) local_unnamed_addr #3 align 2 personality ptr @__gxx_personality_v0 {
entry:
  %rep_ = getelementptr inbounds i8, ptr %this, i64 8
  %0 = load ptr, ptr %rep_, align 8
  %filter_type4 = getelementptr inbounds i8, ptr %0, i64 440
  %1 = load i32, ptr %filter_type4, align 8
  switch i32 %1, label %sw.default [
    i32 0, label %if.then
    i32 2, label %sw.bb
    i32 1, label %sw.bb7
  ]

if.then:                                          ; preds = %entry
  store ptr null, ptr %agg.result, align 8
  br label %return

sw.bb:                                            ; preds = %entry
  tail call void @_ZN7rocksdb28PartitionedFilterBlockReader6CreateEPKNS_15BlockBasedTableERKNS_11ReadOptionsEPNS_18FilePrefetchBufferEbbbPNS_23BlockCacheLookupContextE(ptr sret(%"class.std::unique_ptr.30") align 8 %agg.result, ptr noundef nonnull %this, ptr noundef nonnull align 8 dereferenceable(154) %ro, ptr noundef %prefetch_buffer, i1 noundef zeroext %use_cache, i1 noundef zeroext %prefetch, i1 noundef zeroext %pin, ptr noundef %lookup_context)
  br label %return

sw.bb7:                                           ; preds = %entry
  tail call void @_ZN7rocksdb21FullFilterBlockReader6CreateEPKNS_15BlockBasedTableERKNS_11ReadOptionsEPNS_18FilePrefetchBufferEbbbPNS_23BlockCacheLookupContextE(ptr sret(%"class.std::unique_ptr.30") align 8 %agg.result, ptr noundef nonnull %this, ptr noundef nonnull align 8 dereferenceable(154) %ro, ptr noundef %prefetch_buffer, i1 noundef zeroext %use_cache, i1 noundef zeroext %prefetch, i1 noundef zeroext %pin, ptr noundef %lookup_context)
  br label %return

sw.default:                                       ; preds = %entry
  store ptr null, ptr %agg.result, align 8
  br label %return

return:                                           ; preds = %sw.default, %sw.bb7, %sw.bb, %if.then
  ret void
}